target datalayout = "e-m:e-p270:32:32-p271:32:32-p272:64:64-i64:64-i128:128-f80:128-n8:16:32:64-S128"
target triple = "x86_64-pc-linux-gnu"

%struct.record_functions_st = type { ptr, ptr, ptr, ptr, ptr, ptr, ptr, ptr, ptr, ptr, ptr, ptr, ptr, ptr, ptr, ptr, ptr, ptr }
%struct.tls_buffer_st = type { ptr, i64, i64, i64, i64, i32, i32 }
%struct.tls_rl_record_st = type { i32, i32, i64, i64, i64, ptr, ptr, ptr, i16, [8 x i8] }
%struct.ossl_record_layer_st = type { ptr, ptr, i32, i32, i32, i32, i32, ptr, i16, ptr, ptr, ptr, i64, i32, [33 x %struct.tls_buffer_st], i64, i64, %struct.tls_buffer_st, [32 x %struct.tls_rl_record_st], i64, i64, i64, i32, ptr, i64, [8 x i8], i32, i32, i64, i32, ptr, ptr, i64, ptr, ptr, i32, i32, i32, i64, i64, i64, [64 x i8], i32, i32, i32, ptr, ptr, i32, i32, i64, ptr, ptr, %struct.dtls_bitmap_st, %struct.dtls_bitmap_st, i32, ptr, ptr, ptr, ptr, ptr, i64, ptr }
%struct.dtls_bitmap_st = type { i64, [8 x i8] }

@.str = private unnamed_addr constant [43 x i8] c"../openssl/ssl/record/methods/tls_common.c\00", align 1
@__func__.tls_retry_write_records = private unnamed_addr constant [24 x i8] c"tls_retry_write_records\00", align 1
@.str.16 = private unnamed_addr constant [32 x i8] c"tls_retry_write_records failure\00", align 1

; Function Attrs: nounwind uwtable
define internal void @tls_release_write_buffer_int(ptr noundef %0, i64 noundef %1) #0 {
  %3 = alloca ptr, align 8
  %4 = alloca i64, align 8
  %5 = alloca ptr, align 8
  %6 = alloca i64, align 8
  store ptr %0, ptr %3, align 8, !tbaa !16
  store i64 %1, ptr %4, align 8, !tbaa !38
  call void @llvm.lifetime.start.p0(i64 8, ptr %5) #10
  call void @llvm.lifetime.start.p0(i64 8, ptr %6) #10
  %7 = load ptr, ptr %3, align 8, !tbaa !16
  %8 = getelementptr inbounds nuw %struct.ossl_record_layer_st, ptr %7, i32 0, i32 16
  %9 = load i64, ptr %8, align 8, !tbaa !49
  store i64 %9, ptr %6, align 8, !tbaa !38
  br label %10

10:                                               ; preds = %31, %2
  %11 = load i64, ptr %6, align 8, !tbaa !38
  %12 = load i64, ptr %4, align 8, !tbaa !38
  %13 = icmp ugt i64 %11, %12
  br i1 %13, label %14, label %36

14:                                               ; preds = %10
  %15 = load ptr, ptr %3, align 8, !tbaa !16
  %16 = getelementptr inbounds nuw %struct.ossl_record_layer_st, ptr %15, i32 0, i32 14
  %17 = load i64, ptr %6, align 8, !tbaa !38
  %18 = sub i64 %17, 1
  %19 = getelementptr inbounds nuw [33 x %struct.tls_buffer_st], ptr %16, i64 0, i64 %18
  store ptr %19, ptr %5, align 8, !tbaa !3
  %20 = load ptr, ptr %5, align 8, !tbaa !3
  %21 = getelementptr inbounds nuw %struct.tls_buffer_st, ptr %20, i32 0, i32 5
  %22 = load i32, ptr %21, align 8, !tbaa !54
  %23 = icmp ne i32 %22, 0
  br i1 %23, label %24, label %27

24:                                               ; preds = %14
  %25 = load ptr, ptr %5, align 8, !tbaa !3
  %26 = getelementptr inbounds nuw %struct.tls_buffer_st, ptr %25, i32 0, i32 5
  store i32 0, ptr %26, align 8, !tbaa !54
  br label %31

27:                                               ; preds = %14
  %28 = load ptr, ptr %5, align 8, !tbaa !3
  %29 = getelementptr inbounds nuw %struct.tls_buffer_st, ptr %28, i32 0, i32 0
  %30 = load ptr, ptr %29, align 8, !tbaa !8
  call void @CRYPTO_free(ptr noundef %30, ptr noundef @.str, i32 noundef 136)
  br label %31

31:                                               ; preds = %27, %24
  %32 = load ptr, ptr %5, align 8, !tbaa !3
  %33 = getelementptr inbounds nuw %struct.tls_buffer_st, ptr %32, i32 0, i32 0
  store ptr null, ptr %33, align 8, !tbaa !8
  %34 = load i64, ptr %6, align 8, !tbaa !38
  %35 = add i64 %34, -1
  store i64 %35, ptr %6, align 8, !tbaa !38
  br label %10, !llvm.loop !55

36:                                               ; preds = %10
  call void @llvm.lifetime.end.p0(i64 8, ptr %6) #10
  call void @llvm.lifetime.end.p0(i64 8, ptr %5) #10
  ret void
}

; Function Attrs: nounwind uwtable
define internal void @tls_release_write_buffer(ptr noundef %0) #0 {
  %2 = alloca ptr, align 8
  store ptr %0, ptr %2, align 8, !tbaa !16
  %3 = load ptr, ptr %2, align 8, !tbaa !16
  call void @tls_release_write_buffer_int(ptr noundef %3, i64 noundef 0)
  %4 = load ptr, ptr %2, align 8, !tbaa !16
  %5 = getelementptr inbounds nuw %struct.ossl_record_layer_st, ptr %4, i32 0, i32 16
  store i64 0, ptr %5, align 8, !tbaa !49
  ret void
}

; Function Attrs: nounwind uwtable
define i32 @tls_retry_write_records(ptr noundef %0) #0 {
  %2 = alloca i32, align 4
  %3 = alloca ptr, align 8
  %4 = alloca i32, align 4
  %5 = alloca i32, align 4
  %6 = alloca ptr, align 8
  %7 = alloca i64, align 8
  %8 = alloca i32, align 4
  store ptr %0, ptr %3, align 8, !tbaa !16
  call void @llvm.lifetime.start.p0(i64 4, ptr %4) #10
  call void @llvm.lifetime.start.p0(i64 4, ptr %5) #10
  call void @llvm.lifetime.start.p0(i64 8, ptr %6) #10
  call void @llvm.lifetime.start.p0(i64 8, ptr %7) #10
  store i64 0, ptr %7, align 8, !tbaa !38
  %9 = load ptr, ptr %3, align 8, !tbaa !16
  %10 = getelementptr inbounds nuw %struct.ossl_record_layer_st, ptr %9, i32 0, i32 15
  %11 = load i64, ptr %10, align 8, !tbaa !176
  %12 = load ptr, ptr %3, align 8, !tbaa !16
  %13 = getelementptr inbounds nuw %struct.ossl_record_layer_st, ptr %12, i32 0, i32 16
  %14 = load i64, ptr %13, align 8, !tbaa !49
  %15 = icmp uge i64 %11, %14
  br i1 %15, label %16, label %17

16:                                               ; preds = %1
  store i32 1, ptr %2, align 4
  store i32 1, ptr %8, align 4
  br label %184

17:                                               ; preds = %1
  br label %18

18:                                               ; preds = %173, %124, %17
  %19 = load ptr, ptr %3, align 8, !tbaa !16
  %20 = getelementptr inbounds nuw %struct.ossl_record_layer_st, ptr %19, i32 0, i32 14
  %21 = load ptr, ptr %3, align 8, !tbaa !16
  %22 = getelementptr inbounds nuw %struct.ossl_record_layer_st, ptr %21, i32 0, i32 15
  %23 = load i64, ptr %22, align 8, !tbaa !176
  %24 = getelementptr inbounds nuw [33 x %struct.tls_buffer_st], ptr %20, i64 0, i64 %23
  store ptr %24, ptr %6, align 8, !tbaa !3
  %25 = call ptr @__errno_location() #11
  store i32 0, ptr %25, align 4, !tbaa !18
  %26 = load ptr, ptr %3, align 8, !tbaa !16
  %27 = getelementptr inbounds nuw %struct.ossl_record_layer_st, ptr %26, i32 0, i32 10
  %28 = load ptr, ptr %27, align 8, !tbaa !66
  %29 = icmp ne ptr %28, null
  br i1 %29, label %30, label %97

30:                                               ; preds = %18
  %31 = load ptr, ptr %3, align 8, !tbaa !16
  %32 = getelementptr inbounds nuw %struct.ossl_record_layer_st, ptr %31, i32 0, i32 61
  %33 = load ptr, ptr %32, align 8, !tbaa !73
  %34 = getelementptr inbounds nuw %struct.record_functions_st, ptr %33, i32 0, i32 17
  %35 = load ptr, ptr %34, align 8, !tbaa !178
  %36 = icmp ne ptr %35, null
  br i1 %36, label %37, label %53

37:                                               ; preds = %30
  %38 = load ptr, ptr %3, align 8, !tbaa !16
  %39 = getelementptr inbounds nuw %struct.ossl_record_layer_st, ptr %38, i32 0, i32 61
  %40 = load ptr, ptr %39, align 8, !tbaa !73
  %41 = getelementptr inbounds nuw %struct.record_functions_st, ptr %40, i32 0, i32 17
  %42 = load ptr, ptr %41, align 8, !tbaa !178
  %43 = load ptr, ptr %3, align 8, !tbaa !16
  %44 = load ptr, ptr %6, align 8, !tbaa !3
  %45 = getelementptr inbounds nuw %struct.tls_buffer_st, ptr %44, i32 0, i32 6
  %46 = load i32, ptr %45, align 4, !tbaa !161
  %47 = call i32 %42(ptr noundef %43, i32 noundef %46)
  store i32 %47, ptr %5, align 4, !tbaa !18
  %48 = load i32, ptr %5, align 4, !tbaa !18
  %49 = icmp ne i32 %48, 1
  br i1 %49, label %50, label %52

50:                                               ; preds = %37
  %51 = load i32, ptr %5, align 4, !tbaa !18
  store i32 %51, ptr %2, align 4
  store i32 1, ptr %8, align 4
  br label %184

52:                                               ; preds = %37
  br label %53

53:                                               ; preds = %52, %30
  %54 = load ptr, ptr %3, align 8, !tbaa !16
  %55 = getelementptr inbounds nuw %struct.ossl_record_layer_st, ptr %54, i32 0, i32 10
  %56 = load ptr, ptr %55, align 8, !tbaa !66
  %57 = load ptr, ptr %6, align 8, !tbaa !3
  %58 = getelementptr inbounds nuw %struct.tls_buffer_st, ptr %57, i32 0, i32 0
  %59 = load ptr, ptr %58, align 8, !tbaa !8
  %60 = load ptr, ptr %6, align 8, !tbaa !3
  %61 = getelementptr inbounds nuw %struct.tls_buffer_st, ptr %60, i32 0, i32 3
  %62 = load i64, ptr %61, align 8, !tbaa !61
  %63 = getelementptr inbounds nuw i8, ptr %59, i64 %62
  %64 = load ptr, ptr %6, align 8, !tbaa !3
  %65 = getelementptr inbounds nuw %struct.tls_buffer_st, ptr %64, i32 0, i32 4
  %66 = load i64, ptr %65, align 8, !tbaa !60
  %67 = trunc i64 %66 to i32
  %68 = call i32 @BIO_write(ptr noundef %56, ptr noundef %63, i32 noundef %67)
  store i32 %68, ptr %4, align 4, !tbaa !18
  %69 = load i32, ptr %4, align 4, !tbaa !18
  %70 = icmp sge i32 %69, 0
  br i1 %70, label %71, label %85

71:                                               ; preds = %53
  %72 = load i32, ptr %4, align 4, !tbaa !18
  %73 = sext i32 %72 to i64
  store i64 %73, ptr %7, align 8, !tbaa !38
  %74 = load i32, ptr %4, align 4, !tbaa !18
  %75 = icmp eq i32 %74, 0
  br i1 %75, label %76, label %83

76:                                               ; preds = %71
  %77 = load ptr, ptr %3, align 8, !tbaa !16
  %78 = getelementptr inbounds nuw %struct.ossl_record_layer_st, ptr %77, i32 0, i32 10
  %79 = load ptr, ptr %78, align 8, !tbaa !66
  %80 = call i32 @BIO_test_flags(ptr noundef %79, i32 noundef 8)
  %81 = icmp ne i32 %80, 0
  br i1 %81, label %82, label %83

82:                                               ; preds = %76
  store i32 0, ptr %5, align 4, !tbaa !18
  br label %84

83:                                               ; preds = %76, %71
  store i32 1, ptr %5, align 4, !tbaa !18
  br label %84

84:                                               ; preds = %83, %82
  br label %96

85:                                               ; preds = %53
  %86 = load ptr, ptr %3, align 8, !tbaa !16
  %87 = getelementptr inbounds nuw %struct.ossl_record_layer_st, ptr %86, i32 0, i32 10
  %88 = load ptr, ptr %87, align 8, !tbaa !66
  %89 = call i32 @BIO_test_flags(ptr noundef %88, i32 noundef 8)
  %90 = icmp ne i32 %89, 0
  br i1 %90, label %91, label %92

91:                                               ; preds = %85
  store i32 0, ptr %5, align 4, !tbaa !18
  br label %95

92:                                               ; preds = %85
  call void @ERR_new()
  call void @ERR_set_debug(ptr noundef @.str, i32 noundef 1939, ptr noundef @__func__.tls_retry_write_records)
  %93 = call ptr @__errno_location() #11
  %94 = load i32, ptr %93, align 4, !tbaa !18
  call void (i32, i32, ptr, ...) @ERR_set_error(i32 noundef 2, i32 noundef %94, ptr noundef @.str.16)
  store i32 -2, ptr %5, align 4, !tbaa !18
  br label %95

95:                                               ; preds = %92, %91
  br label %96

96:                                               ; preds = %95, %84
  br label %99

97:                                               ; preds = %18
  call void @ERR_new()
  call void @ERR_set_debug(ptr noundef @.str, i32 noundef 1945, ptr noundef @__func__.tls_retry_write_records)
  %98 = load ptr, ptr %3, align 8, !tbaa !16
  call void (ptr, i32, i32, ptr, ...) @ossl_rlayer_fatal(ptr noundef %98, i32 noundef 80, i32 noundef 128, ptr noundef null)
  store i32 -2, ptr %5, align 4, !tbaa !18
  store i32 -1, ptr %4, align 4, !tbaa !18
  br label %99

99:                                               ; preds = %97, %96
  %100 = load i32, ptr %4, align 4, !tbaa !18
  %101 = icmp sge i32 %100, 0
  br i1 %101, label %102, label %142

102:                                              ; preds = %99
  %103 = load i64, ptr %7, align 8, !tbaa !38
  %104 = load ptr, ptr %6, align 8, !tbaa !3
  %105 = getelementptr inbounds nuw %struct.tls_buffer_st, ptr %104, i32 0, i32 4
  %106 = load i64, ptr %105, align 8, !tbaa !60
  %107 = icmp eq i64 %103, %106
  br i1 %107, label %108, label %142

108:                                              ; preds = %102
  %109 = load ptr, ptr %6, align 8, !tbaa !3
  %110 = getelementptr inbounds nuw %struct.tls_buffer_st, ptr %109, i32 0, i32 4
  store i64 0, ptr %110, align 8, !tbaa !60
  %111 = load i64, ptr %7, align 8, !tbaa !38
  %112 = load ptr, ptr %6, align 8, !tbaa !3
  %113 = getelementptr inbounds nuw %struct.tls_buffer_st, ptr %112, i32 0, i32 3
  %114 = load i64, ptr %113, align 8, !tbaa !61
  %115 = add i64 %114, %111
  store i64 %115, ptr %113, align 8, !tbaa !61
  %116 = load ptr, ptr %3, align 8, !tbaa !16
  %117 = getelementptr inbounds nuw %struct.ossl_record_layer_st, ptr %116, i32 0, i32 15
  %118 = load i64, ptr %117, align 8, !tbaa !176
  %119 = add i64 %118, 1
  store i64 %119, ptr %117, align 8, !tbaa !176
  %120 = load ptr, ptr %3, align 8, !tbaa !16
  %121 = getelementptr inbounds nuw %struct.ossl_record_layer_st, ptr %120, i32 0, i32 16
  %122 = load i64, ptr %121, align 8, !tbaa !49
  %123 = icmp ult i64 %119, %122
  br i1 %123, label %124, label %125

124:                                              ; preds = %108
  br label %18

125:                                              ; preds = %108
  %126 = load ptr, ptr %3, align 8, !tbaa !16
  %127 = getelementptr inbounds nuw %struct.ossl_record_layer_st, ptr %126, i32 0, i32 15
  %128 = load i64, ptr %127, align 8, !tbaa !176
  %129 = load ptr, ptr %3, align 8, !tbaa !16
  %130 = getelementptr inbounds nuw %struct.ossl_record_layer_st, ptr %129, i32 0, i32 16
  %131 = load i64, ptr %130, align 8, !tbaa !49
  %132 = icmp eq i64 %128, %131
  br i1 %132, label %133, label %141

133:                                              ; preds = %125
  %134 = load ptr, ptr %3, align 8, !tbaa !16
  %135 = getelementptr inbounds nuw %struct.ossl_record_layer_st, ptr %134, i32 0, i32 13
  %136 = load i32, ptr %135, align 8, !tbaa !69
  %137 = and i32 %136, 16
  %138 = icmp ne i32 %137, 0
  br i1 %138, label %139, label %141

139:                                              ; preds = %133
  %140 = load ptr, ptr %3, align 8, !tbaa !16
  call void @tls_release_write_buffer(ptr noundef %140)
  br label %141

141:                                              ; preds = %139, %133, %125
  store i32 1, ptr %2, align 4
  store i32 1, ptr %8, align 4
  br label %184

142:                                              ; preds = %102, %99
  %143 = load i32, ptr %4, align 4, !tbaa !18
  %144 = icmp sle i32 %143, 0
  br i1 %144, label %145, label %172

145:                                              ; preds = %142
  %146 = load ptr, ptr %3, align 8, !tbaa !16
  %147 = getelementptr inbounds nuw %struct.ossl_record_layer_st, ptr %146, i32 0, i32 2
  %148 = load i32, ptr %147, align 8, !tbaa !43
  %149 = icmp ne i32 %148, 0
  br i1 %149, label %150, label %170

150:                                              ; preds = %145
  %151 = load ptr, ptr %6, align 8, !tbaa !3
  %152 = getelementptr inbounds nuw %struct.tls_buffer_st, ptr %151, i32 0, i32 4
  store i64 0, ptr %152, align 8, !tbaa !60
  %153 = load ptr, ptr %3, align 8, !tbaa !16
  %154 = getelementptr inbounds nuw %struct.ossl_record_layer_st, ptr %153, i32 0, i32 15
  %155 = load i64, ptr %154, align 8, !tbaa !176
  %156 = add i64 %155, 1
  store i64 %156, ptr %154, align 8, !tbaa !176
  %157 = load ptr, ptr %3, align 8, !tbaa !16
  %158 = getelementptr inbounds nuw %struct.ossl_record_layer_st, ptr %157, i32 0, i32 16
  %159 = load i64, ptr %158, align 8, !tbaa !49
  %160 = icmp eq i64 %156, %159
  br i1 %160, label %161, label %169

161:                                              ; preds = %150
  %162 = load ptr, ptr %3, align 8, !tbaa !16
  %163 = getelementptr inbounds nuw %struct.ossl_record_layer_st, ptr %162, i32 0, i32 13
  %164 = load i32, ptr %163, align 8, !tbaa !69
  %165 = and i32 %164, 16
  %166 = icmp ne i32 %165, 0
  br i1 %166, label %167, label %169

167:                                              ; preds = %161
  %168 = load ptr, ptr %3, align 8, !tbaa !16
  call void @tls_release_write_buffer(ptr noundef %168)
  br label %169

169:                                              ; preds = %167, %161, %150
  br label %170

170:                                              ; preds = %169, %145
  %171 = load i32, ptr %5, align 4, !tbaa !18
  store i32 %171, ptr %2, align 4
  store i32 1, ptr %8, align 4
  br label %184

172:                                              ; preds = %142
  br label %173

173:                                              ; preds = %172
  %174 = load i64, ptr %7, align 8, !tbaa !38
  %175 = load ptr, ptr %6, align 8, !tbaa !3
  %176 = getelementptr inbounds nuw %struct.tls_buffer_st, ptr %175, i32 0, i32 3
  %177 = load i64, ptr %176, align 8, !tbaa !61
  %178 = add i64 %177, %174
  store i64 %178, ptr %176, align 8, !tbaa !61
  %179 = load i64, ptr %7, align 8, !tbaa !38
  %180 = load ptr, ptr %6, align 8, !tbaa !3
  %181 = getelementptr inbounds nuw %struct.tls_buffer_st, ptr %180, i32 0, i32 4
  %182 = load i64, ptr %181, align 8, !tbaa !60
  %183 = sub i64 %182, %179
  store i64 %183, ptr %181, align 8, !tbaa !60
  br label %18

184:                                              ; preds = %170, %141, %50, %16
  call void @llvm.lifetime.end.p0(i64 8, ptr %7) #10
  call void @llvm.lifetime.end.p0(i64 8, ptr %6) #10
  call void @llvm.lifetime.end.p0(i64 4, ptr %5) #10
  call void @llvm.lifetime.end.p0(i64 4, ptr %4) #10
  %185 = load i32, ptr %2, align 4
  ret i32 %185
}