; Function Attrs: nounwind uwtable
define i32 @tls_retry_write_records(ptr noundef %0) #0 {
  %2 = getelementptr inbounds nuw i8, ptr %0, i64 1680
  %3 = load i64, ptr %2, align 8, !tbaa !144
  %4 = getelementptr inbounds nuw i8, ptr %0, i64 1688
  %5 = load i64, ptr %4, align 8, !tbaa !38
  %.not = icmp ult i64 %3, %5
  br i1 %.not, label %.preheader, label %.loopexit

.preheader:                                       ; preds = %1
  %6 = getelementptr inbounds nuw i8, ptr %0, i64 96
  %7 = tail call ptr @__errno_location() #14
  %8 = getelementptr inbounds nuw i8, ptr %0, i64 64
  %9 = getelementptr inbounds nuw [33 x %struct.tls_buffer_st], ptr %6, i64 0, i64 %3
  store i32 0, ptr %7, align 4, !tbaa !28
  %10 = load ptr, ptr %8, align 8, !tbaa !52
  %.not53101 = icmp eq ptr %10, null
  br i1 %.not53101, label %._crit_edge, label %.lr.ph

.lr.ph:                                           ; preds = %.preheader
  %11 = getelementptr inbounds nuw i8, ptr %0, i64 4424
  br label %12

12:                                               ; preds = %.lr.ph, %.backedge
  %13 = phi ptr [ %10, %.lr.ph ], [ %100, %.backedge ]
  %14 = phi ptr [ %9, %.lr.ph ], [ %99, %.backedge ]
  %15 = load ptr, ptr %11, align 8, !tbaa !56
  %16 = getelementptr inbounds nuw i8, ptr %15, i64 136
  %17 = load ptr, ptr %16, align 8, !tbaa !146
  %.not54 = icmp eq ptr %17, null
  br i1 %.not54, label %22, label %18

18:                                               ; preds = %12
  %19 = getelementptr inbounds nuw i8, ptr %14, i64 44
  %20 = load i32, ptr %19, align 4, !tbaa !129
  %21 = tail call i32 %17(ptr noundef nonnull %0, i32 noundef %20) #13
  %.not55 = icmp eq i32 %21, 1
  br i1 %.not55, label %._crit_edge113, label %.loopexit

._crit_edge113:                                   ; preds = %18
  %.pre = load ptr, ptr %8, align 8, !tbaa !52
  br label %22

22:                                               ; preds = %._crit_edge113, %12
  %23 = phi ptr [ %.pre, %._crit_edge113 ], [ %13, %12 ]
  %24 = load ptr, ptr %14, align 8, !tbaa !3
  %25 = getelementptr inbounds nuw i8, ptr %14, i64 24
  %26 = load i64, ptr %25, align 8, !tbaa !47
  %27 = getelementptr inbounds nuw i8, ptr %24, i64 %26
  %28 = getelementptr inbounds nuw i8, ptr %14, i64 32
  %29 = load i64, ptr %28, align 8, !tbaa !45
  %30 = trunc i64 %29 to i32
  %31 = tail call i32 @BIO_write(ptr noundef %23, ptr noundef %27, i32 noundef %30) #13
  %32 = icmp sgt i32 %31, -1
  br i1 %32, label %33, label %40

33:                                               ; preds = %22
  %34 = zext nneg i32 %31 to i64
  %35 = icmp eq i32 %31, 0
  br i1 %35, label %36, label %.thread124

36:                                               ; preds = %33
  %37 = load ptr, ptr %8, align 8, !tbaa !52
  %38 = tail call i32 @BIO_test_flags(ptr noundef %37, i32 noundef 8) #13
  %.not57 = icmp eq i32 %38, 0
  %39 = load i64, ptr %28, align 8, !tbaa !45
  br i1 %.not57, label %45, label %.thread

40:                                               ; preds = %22
  %41 = load ptr, ptr %8, align 8, !tbaa !52
  %42 = tail call i32 @BIO_test_flags(ptr noundef %41, i32 noundef 8) #13
  %.not56 = icmp eq i32 %42, 0
  br i1 %.not56, label %43, label %.thread73

43:                                               ; preds = %40
  tail call void @ERR_new() #13
  tail call void @ERR_set_debug(ptr noundef nonnull @.str, i32 noundef 1939, ptr noundef nonnull @__func__.tls_retry_write_records) #13
  %44 = load i32, ptr %7, align 4, !tbaa !28
  tail call void (i32, i32, ptr, ...) @ERR_set_error(i32 noundef 2, i32 noundef %44, ptr noundef nonnull @.str.16) #13
  br label %.thread73

._crit_edge:                                      ; preds = %.backedge, %.preheader
  %.lcssa88 = phi ptr [ %9, %.preheader ], [ %99, %.backedge ]
  tail call void @ERR_new() #13
  tail call void @ERR_set_debug(ptr noundef nonnull @.str, i32 noundef 1945, ptr noundef nonnull @__func__.tls_retry_write_records) #13
  tail call void (ptr, i32, i32, ptr, ...) @ossl_rlayer_fatal(ptr noundef nonnull %0, i32 noundef 80, i32 noundef 128, ptr noundef null)
  br label %.thread73

45:                                               ; preds = %36
  %46 = icmp eq i64 %39, %34
  br i1 %46, label %50, label %.thread73

.thread124:                                       ; preds = %33
  %47 = load i64, ptr %28, align 8, !tbaa !45
  %48 = icmp eq i64 %47, %34
  br i1 %48, label %50, label %94

.thread:                                          ; preds = %36
  %49 = icmp eq i64 %39, 0
  br i1 %49, label %50, label %.thread73

50:                                               ; preds = %.thread124, %.thread, %45
  %.1118 = phi i64 [ 0, %.thread ], [ 0, %45 ], [ %34, %.thread124 ]
  store i64 0, ptr %28, align 8, !tbaa !45
  %51 = load i64, ptr %25, align 8, !tbaa !47
  %52 = add i64 %51, %.1118
  store i64 %52, ptr %25, align 8, !tbaa !47
  %53 = load i64, ptr %2, align 8, !tbaa !144
  %54 = add i64 %53, 1
  store i64 %54, ptr %2, align 8, !tbaa !144
  %55 = load i64, ptr %4, align 8, !tbaa !38
  %56 = icmp ult i64 %54, %55
  br i1 %56, label %.backedge, label %57

57:                                               ; preds = %50
  %58 = icmp eq i64 %54, %55
  br i1 %58, label %59, label %.loopexit

59:                                               ; preds = %57
  %60 = getelementptr inbounds nuw i8, ptr %0, i64 88
  %61 = load i32, ptr %60, align 8, !tbaa !54
  %62 = and i32 %61, 16
  %.not60 = icmp eq i32 %62, 0
  br i1 %.not60, label %.loopexit, label %63

63:                                               ; preds = %59
  %.not.i = icmp eq i64 %54, 0
  br i1 %.not.i, label %.loopexit.sink.split, label %.lr.ph.i.i

.lr.ph.i.i:                                       ; preds = %63, %71
  %.09.i.i = phi i64 [ %64, %71 ], [ %54, %63 ]
  %64 = add i64 %.09.i.i, -1
  %65 = getelementptr inbounds nuw [33 x %struct.tls_buffer_st], ptr %6, i64 0, i64 %64
  %66 = getelementptr inbounds nuw i8, ptr %65, i64 40
  %67 = load i32, ptr %66, align 8, !tbaa !41
  %.not.i.i = icmp eq i32 %67, 0
  br i1 %.not.i.i, label %69, label %68

68:                                               ; preds = %.lr.ph.i.i
  store i32 0, ptr %66, align 8, !tbaa !41
  br label %71

69:                                               ; preds = %.lr.ph.i.i
  %70 = load ptr, ptr %65, align 8, !tbaa !3
  tail call void @CRYPTO_free(ptr noundef %70, ptr noundef nonnull @.str, i32 noundef 136) #13
  br label %71

71:                                               ; preds = %69, %68
  store ptr null, ptr %65, align 8, !tbaa !3
  %.not2.i = icmp eq i64 %64, 0
  br i1 %.not2.i, label %.loopexit.sink.split, label %.lr.ph.i.i, !llvm.loop !42

.thread73:                                        ; preds = %45, %.thread, %43, %._crit_edge, %40
  %72 = phi ptr [ %14, %40 ], [ %.lcssa88, %._crit_edge ], [ %14, %43 ], [ %14, %.thread ], [ %14, %45 ]
  %.0467177 = phi i32 [ 0, %40 ], [ -2, %._crit_edge ], [ -2, %43 ], [ 1, %45 ], [ 0, %.thread ]
  %73 = getelementptr inbounds nuw i8, ptr %0, i64 16
  %74 = load i32, ptr %73, align 8, !tbaa !30
  %.not58 = icmp eq i32 %74, 0
  br i1 %.not58, label %.loopexit, label %75

75:                                               ; preds = %.thread73
  %76 = getelementptr inbounds nuw i8, ptr %72, i64 32
  store i64 0, ptr %76, align 8, !tbaa !45
  %77 = load i64, ptr %2, align 8, !tbaa !144
  %78 = add i64 %77, 1
  store i64 %78, ptr %2, align 8, !tbaa !144
  %79 = load i64, ptr %4, align 8, !tbaa !38
  %80 = icmp eq i64 %78, %79
  br i1 %80, label %81, label %.loopexit

81:                                               ; preds = %75
  %82 = getelementptr inbounds nuw i8, ptr %0, i64 88
  %83 = load i32, ptr %82, align 8, !tbaa !54
  %84 = and i32 %83, 16
  %.not59 = icmp eq i32 %84, 0
  br i1 %.not59, label %.loopexit, label %85

85:                                               ; preds = %81
  %.not.i61 = icmp eq i64 %78, 0
  br i1 %.not.i61, label %.loopexit.sink.split, label %.lr.ph.i.i62

.lr.ph.i.i62:                                     ; preds = %85, %93
  %.09.i.i63 = phi i64 [ %86, %93 ], [ %78, %85 ]
  %86 = add i64 %.09.i.i63, -1
  %87 = getelementptr inbounds nuw [33 x %struct.tls_buffer_st], ptr %6, i64 0, i64 %86
  %88 = getelementptr inbounds nuw i8, ptr %87, i64 40
  %89 = load i32, ptr %88, align 8, !tbaa !41
  %.not.i.i64 = icmp eq i32 %89, 0
  br i1 %.not.i.i64, label %91, label %90

90:                                               ; preds = %.lr.ph.i.i62
  store i32 0, ptr %88, align 8, !tbaa !41
  br label %93

91:                                               ; preds = %.lr.ph.i.i62
  %92 = load ptr, ptr %87, align 8, !tbaa !3
  tail call void @CRYPTO_free(ptr noundef %92, ptr noundef nonnull @.str, i32 noundef 136) #13
  br label %93

93:                                               ; preds = %91, %90
  store ptr null, ptr %87, align 8, !tbaa !3
  %.not2.i65 = icmp eq i64 %86, 0
  br i1 %.not2.i65, label %.loopexit.sink.split, label %.lr.ph.i.i62, !llvm.loop !42

94:                                               ; preds = %.thread124
  %95 = load i64, ptr %25, align 8, !tbaa !47
  %96 = add i64 %95, %34
  store i64 %96, ptr %25, align 8, !tbaa !47
  %97 = sub i64 %47, %34
  store i64 %97, ptr %28, align 8, !tbaa !45
  %.pre114 = load i64, ptr %2, align 8, !tbaa !144
  br label %.backedge

.backedge:                                        ; preds = %94, %50
  %98 = phi i64 [ %.pre114, %94 ], [ %54, %50 ]
  %99 = getelementptr inbounds nuw [33 x %struct.tls_buffer_st], ptr %6, i64 0, i64 %98
  store i32 0, ptr %7, align 4, !tbaa !28
  %100 = load ptr, ptr %8, align 8, !tbaa !52
  %.not53 = icmp eq ptr %100, null
  br i1 %.not53, label %._crit_edge, label %12

.loopexit.sink.split:                             ; preds = %71, %93, %85, %63
  %.045.ph = phi i32 [ 1, %63 ], [ %.0467177, %85 ], [ %.0467177, %93 ], [ 1, %71 ]
  store i64 0, ptr %4, align 8, !tbaa !38
  br label %.loopexit

.loopexit:                                        ; preds = %18, %.loopexit.sink.split, %.thread73, %81, %75, %57, %59, %1
  %.045 = phi i32 [ 1, %1 ], [ 1, %59 ], [ 1, %57 ], [ %.0467177, %75 ], [ %.0467177, %81 ], [ %.0467177, %.thread73 ], [ %.045.ph, %.loopexit.sink.split ], [ %21, %18 ]
  ret i32 %.045
}